
examples/test:     file format elf64-littleriscv


Disassembly of section .plt:

0000000000010380 <_PROCEDURE_LINKAGE_TABLE_>:
   10380:	97 23 00 00 33 03 c3 41 03 be 03 c8 13 03 43 fd     .#..3..A......C.
   10390:	93 82 03 c8 13 53 13 00 83 b2 82 00 67 00 0e 00     .....S......g...

00000000000103a0 <__libc_start_main@plt>:
   103a0:	00002e17          	auipc	t3,0x2
   103a4:	c70e3e03          	ld	t3,-912(t3) # 12010 <__libc_start_main@GLIBC_2.27>
   103a8:	000e0367          	jalr	t1,t3
   103ac:	00000013          	nop

Disassembly of section .text:

00000000000103b0 <_start>:
   103b0:	02e000ef          	jal	ra,103de <load_gp>
   103b4:	87aa                	mv	a5,a0
   103b6:	00000517          	auipc	a0,0x0
   103ba:	23250513          	addi	a0,a0,562 # 105e8 <main>
   103be:	6582                	ld	a1,0(sp)
   103c0:	0030                	addi	a2,sp,8
   103c2:	ff017113          	andi	sp,sp,-16
   103c6:	00000697          	auipc	a3,0x0
   103ca:	23268693          	addi	a3,a3,562 # 105f8 <__libc_csu_init>
   103ce:	00000717          	auipc	a4,0x0
   103d2:	28270713          	addi	a4,a4,642 # 10650 <__libc_csu_fini>
   103d6:	880a                	mv	a6,sp
   103d8:	fc9ff0ef          	jal	ra,103a0 <__libc_start_main@plt>
   103dc:	9002                	ebreak

00000000000103de <load_gp>:
   103de:	00002197          	auipc	gp,0x2
   103e2:	42218193          	addi	gp,gp,1058 # 12800 <__global_pointer$>
   103e6:	8082                	ret
	...

00000000000103ea <deregister_tm_clones>:
   103ea:	6549                	lui	a0,0x12
   103ec:	6749                	lui	a4,0x12
   103ee:	00050793          	mv	a5,a0
   103f2:	00070713          	mv	a4,a4
   103f6:	00f70863          	beq	a4,a5,10406 <deregister_tm_clones+0x1c>
   103fa:	00000793          	li	a5,0
   103fe:	c781                	beqz	a5,10406 <deregister_tm_clones+0x1c>
   10400:	00050513          	mv	a0,a0
   10404:	8782                	jr	a5
   10406:	8082                	ret

0000000000010408 <register_tm_clones>:
   10408:	6549                	lui	a0,0x12
   1040a:	00050793          	mv	a5,a0
   1040e:	6749                	lui	a4,0x12
   10410:	00070593          	mv	a1,a4
   10414:	8d9d                	sub	a1,a1,a5
   10416:	4035d793          	srai	a5,a1,0x3
   1041a:	91fd                	srli	a1,a1,0x3f
   1041c:	95be                	add	a1,a1,a5
   1041e:	8585                	srai	a1,a1,0x1
   10420:	c599                	beqz	a1,1042e <register_tm_clones+0x26>
   10422:	00000793          	li	a5,0
   10426:	c781                	beqz	a5,1042e <register_tm_clones+0x26>
   10428:	00050513          	mv	a0,a0
   1042c:	8782                	jr	a5
   1042e:	8082                	ret

0000000000010430 <__do_global_dtors_aux>:
   10430:	1141                	addi	sp,sp,-16
   10432:	e022                	sd	s0,0(sp)
   10434:	8301c783          	lbu	a5,-2000(gp) # 12030 <completed.0>
   10438:	e406                	sd	ra,8(sp)
   1043a:	e791                	bnez	a5,10446 <__do_global_dtors_aux+0x16>
   1043c:	fafff0ef          	jal	ra,103ea <deregister_tm_clones>
   10440:	4785                	li	a5,1
   10442:	82f18823          	sb	a5,-2000(gp) # 12030 <completed.0>
   10446:	60a2                	ld	ra,8(sp)
   10448:	6402                	ld	s0,0(sp)
   1044a:	0141                	addi	sp,sp,16
   1044c:	8082                	ret

000000000001044e <frame_dummy>:
   1044e:	bf6d                	j	10408 <register_tm_clones>

0000000000010450 <rv64i>:
   10450:	1141                	addi	sp,sp,-16
   10452:	e422                	sd	s0,8(sp)
   10454:	0800                	addi	s0,sp,16
   10456:	00b502b3          	add	t0,a0,a1
   1045a:	00b502bb          	addw	t0,a0,a1
   1045e:	00150293          	addi	t0,a0,1 # 12001 <__TMC_END__+0x1>
   10462:	0015029b          	addiw	t0,a0,1
   10466:	00b572b3          	and	t0,a0,a1
   1046a:	00157293          	andi	t0,a0,1
   1046e:	00001297          	auipc	t0,0x1
   10472:	16b50b63          	beq	a0,a1,105e8 <main>
   10476:	16b55963          	bge	a0,a1,105e8 <main>
   1047a:	16b57763          	bgeu	a0,a1,105e8 <main>
   1047e:	16b54563          	blt	a0,a1,105e8 <main>
   10482:	16b56363          	bltu	a0,a1,105e8 <main>
   10486:	16b51163          	bne	a0,a1,105e8 <main>
   1048a:	9002                	ebreak
   1048c:	00000073          	ecall
   10490:	158000ef          	jal	ra,105e8 <main>
   10494:	001500e7          	jalr	1(a0)
   10498:	00150283          	lb	t0,1(a0)
   1049c:	00154283          	lbu	t0,1(a0)
   104a0:	00153283          	ld	t0,1(a0)
   104a4:	00151283          	lh	t0,1(a0)
   104a8:	00155283          	lhu	t0,1(a0)
   104ac:	6285                	lui	t0,0x1
   104ae:	00152283          	lw	t0,1(a0)
   104b2:	00156283          	lwu	t0,1(a0)
   104b6:	00b562b3          	or	t0,a0,a1
   104ba:	00156293          	ori	t0,a0,1
   104be:	00b500a3          	sb	a1,1(a0)
   104c2:	00b530a3          	sd	a1,1(a0)
   104c6:	00b510a3          	sh	a1,1(a0)
   104ca:	00b512b3          	sll	t0,a0,a1
   104ce:	00b512bb          	sllw	t0,a0,a1
   104d2:	00151293          	slli	t0,a0,0x1
   104d6:	0015129b          	slliw	t0,a0,0x1
   104da:	00b522b3          	slt	t0,a0,a1
   104de:	00152293          	slti	t0,a0,1
   104e2:	00253293          	sltiu	t0,a0,2
   104e6:	00b532b3          	sltu	t0,a0,a1
   104ea:	40b552b3          	sra	t0,a0,a1
   104ee:	40b552bb          	sraw	t0,a0,a1
   104f2:	40155293          	srai	t0,a0,0x1
   104f6:	4015529b          	sraiw	t0,a0,0x1
   104fa:	00b552b3          	srl	t0,a0,a1
   104fe:	00b552bb          	srlw	t0,a0,a1
   10502:	00155293          	srli	t0,a0,0x1
   10506:	0015529b          	srliw	t0,a0,0x1
   1050a:	40b502b3          	sub	t0,a0,a1
   1050e:	40b502bb          	subw	t0,a0,a1
   10512:	00b520a3          	sw	a1,1(a0)
   10516:	00b542b3          	xor	t0,a0,a1
   1051a:	00154293          	xori	t0,a0,1
   1051e:	0001                	nop
   10520:	6422                	ld	s0,8(sp)
   10522:	0141                	addi	sp,sp,16
   10524:	8082                	ret

0000000000010526 <pseudo>:
   10526:	1141                	addi	sp,sp,-16
   10528:	e422                	sd	s0,8(sp)
   1052a:	0800                	addi	s0,sp,16
   1052c:	cd55                	beqz	a0,105e8 <main>
   1052e:	ed4d                	bnez	a0,105e8 <main>
   10530:	a865                	j	105e8 <main>
   10532:	8502                	jr	a0
   10534:	00000297          	auipc	t0,0x0
   10538:	0b428293          	addi	t0,t0,180 # 105e8 <main>
   1053c:	4285                	li	t0,1
   1053e:	82aa                	mv	t0,a0
   10540:	40a002b3          	neg	t0,a0
   10544:	0001                	nop
   10546:	fff54293          	not	t0,a0
   1054a:	8082                	ret
   1054c:	00153293          	seqz	t0,a0
   10550:	00a032b3          	snez	t0,a0
   10554:	0001                	nop
   10556:	6422                	ld	s0,8(sp)
   10558:	0141                	addi	sp,sp,16
   1055a:	8082                	ret

000000000001055c <registers>:
   1055c:	1141                	addi	sp,sp,-16
   1055e:	e422                	sd	s0,8(sp)
   10560:	0800                	addi	s0,sp,16
   10562:	000002b3          	add	t0,zero,zero
   10566:	001082b3          	add	t0,ra,ra
   1056a:	002102b3          	add	t0,sp,sp
   1056e:	003182b3          	add	t0,gp,gp
   10572:	004202b3          	add	t0,tp,tp
   10576:	9296                	add	t0,t0,t0
   10578:	006302b3          	add	t0,t1,t1
   1057c:	007382b3          	add	t0,t2,t2
   10580:	008402b3          	add	t0,s0,s0
   10584:	009482b3          	add	t0,s1,s1
   10588:	00a502b3          	add	t0,a0,a0
   1058c:	00b582b3          	add	t0,a1,a1
   10590:	00c602b3          	add	t0,a2,a2
   10594:	00d682b3          	add	t0,a3,a3
   10598:	00e702b3          	add	t0,a4,a4
   1059c:	00f782b3          	add	t0,a5,a5
   105a0:	010802b3          	add	t0,a6,a6
   105a4:	011882b3          	add	t0,a7,a7
   105a8:	012902b3          	add	t0,s2,s2
   105ac:	013982b3          	add	t0,s3,s3
   105b0:	014a02b3          	add	t0,s4,s4
   105b4:	015a82b3          	add	t0,s5,s5
   105b8:	016b02b3          	add	t0,s6,s6
   105bc:	017b82b3          	add	t0,s7,s7
   105c0:	018c02b3          	add	t0,s8,s8
   105c4:	019c82b3          	add	t0,s9,s9
   105c8:	01ad02b3          	add	t0,s10,s10
   105cc:	01bd82b3          	add	t0,s11,s11
   105d0:	01ce02b3          	add	t0,t3,t3
   105d4:	01de82b3          	add	t0,t4,t4
   105d8:	01ef02b3          	add	t0,t5,t5
   105dc:	01ff82b3          	add	t0,t6,t6
   105e0:	0001                	nop
   105e2:	6422                	ld	s0,8(sp)
   105e4:	0141                	addi	sp,sp,16
   105e6:	8082                	ret

00000000000105e8 <main>:
   105e8:	1141                	addi	sp,sp,-16
   105ea:	e422                	sd	s0,8(sp)
   105ec:	0800                	addi	s0,sp,16
   105ee:	4781                	li	a5,0
   105f0:	853e                	mv	a0,a5
   105f2:	6422                	ld	s0,8(sp)
   105f4:	0141                	addi	sp,sp,16
   105f6:	8082                	ret

00000000000105f8 <__libc_csu_init>:
   105f8:	7139                	addi	sp,sp,-64
   105fa:	f822                	sd	s0,48(sp)
   105fc:	f04a                	sd	s2,32(sp)
   105fe:	00002417          	auipc	s0,0x2
   10602:	81240413          	addi	s0,s0,-2030 # 11e10 <__frame_dummy_init_array_entry>
   10606:	00002917          	auipc	s2,0x2
   1060a:	81290913          	addi	s2,s2,-2030 # 11e18 <__do_global_dtors_aux_fini_array_entry>
   1060e:	40890933          	sub	s2,s2,s0
   10612:	fc06                	sd	ra,56(sp)
   10614:	f426                	sd	s1,40(sp)
   10616:	ec4e                	sd	s3,24(sp)
   10618:	e852                	sd	s4,16(sp)
   1061a:	e456                	sd	s5,8(sp)
   1061c:	40395913          	srai	s2,s2,0x3
   10620:	00090f63          	beqz	s2,1063e <__libc_csu_init+0x46>
   10624:	89aa                	mv	s3,a0
   10626:	8a2e                	mv	s4,a1
   10628:	8ab2                	mv	s5,a2
   1062a:	4481                	li	s1,0
   1062c:	601c                	ld	a5,0(s0)
   1062e:	8656                	mv	a2,s5
   10630:	85d2                	mv	a1,s4
   10632:	854e                	mv	a0,s3
   10634:	0485                	addi	s1,s1,1
   10636:	9782                	jalr	a5
   10638:	0421                	addi	s0,s0,8
   1063a:	fe9919e3          	bne	s2,s1,1062c <__libc_csu_init+0x34>
   1063e:	70e2                	ld	ra,56(sp)
   10640:	7442                	ld	s0,48(sp)
   10642:	74a2                	ld	s1,40(sp)
   10644:	7902                	ld	s2,32(sp)
   10646:	69e2                	ld	s3,24(sp)
   10648:	6a42                	ld	s4,16(sp)
   1064a:	6aa2                	ld	s5,8(sp)
   1064c:	6121                	addi	sp,sp,64
   1064e:	8082                	ret

0000000000010650 <__libc_csu_fini>:
   10650:	8082                	ret
